target datalayout = "e-m:e-p270:32:32-p271:32:32-p272:64:64-i64:64-f80:128-n8:16:32:64-S128"
target triple = "x86_64-pc-linux-gnu"

%struct.juli = type { i32, i32, float }

@.str = private unnamed_addr constant [3 x i8] c"%d\00", align 1
@.str.1 = private unnamed_addr constant [7 x i8] c"%d%d%d\00", align 1
@.str.2 = private unnamed_addr constant [28 x i8] c"(%d,%d,%d)-(%d,%d,%d)=%.2f\0A\00", align 1

; Function Attrs: noinline nounwind uwtable
define dso_local i32 @main() #0 {
  %1 = alloca i32, align 4
  %2 = alloca i32, align 4
  %3 = alloca i32, align 4
  %4 = alloca i32, align 4
  %5 = alloca i32, align 4
  %6 = alloca i32, align 4
  %7 = alloca [12 x i32], align 16
  %8 = alloca [12 x i32], align 16
  %9 = alloca [12 x i32], align 16
  %10 = alloca float, align 4
  %11 = alloca [100 x %struct.juli], align 16
  store i32 0, i32* %1, align 4
  store i32 1, i32* %5, align 4
  %12 = call i32 (i8*, ...) @__isoc99_scanf(i8* getelementptr inbounds ([3 x i8], [3 x i8]* @.str, i64 0, i64 0), i32* %2)
  store i32 1, i32* %3, align 4
  br label %13

13:                                               ; preds = %28, %0
  %14 = load i32, i32* %3, align 4
  %15 = load i32, i32* %2, align 4
  %16 = icmp sle i32 %14, %15
  br i1 %16, label %17, label %31

17:                                               ; preds = %13
  %18 = load i32, i32* %3, align 4
  %19 = sext i32 %18 to i64
  %20 = getelementptr inbounds [12 x i32], [12 x i32]* %7, i64 0, i64 %19
  %21 = load i32, i32* %3, align 4
  %22 = sext i32 %21 to i64
  %23 = getelementptr inbounds [12 x i32], [12 x i32]* %8, i64 0, i64 %22
  %24 = load i32, i32* %3, align 4
  %25 = sext i32 %24 to i64
  %26 = getelementptr inbounds [12 x i32], [12 x i32]* %9, i64 0, i64 %25
  %27 = call i32 (i8*, ...) @__isoc99_scanf(i8* getelementptr inbounds ([7 x i8], [7 x i8]* @.str.1, i64 0, i64 0), i32* %20, i32* %23, i32* %26)
  br label %28

28:                                               ; preds = %17
  %29 = load i32, i32* %3, align 4
  %30 = add nsw i32 %29, 1
  store i32 %30, i32* %3, align 4
  br label %13

31:                                               ; preds = %13
  store i32 1, i32* %3, align 4
  br label %32

32:                                               ; preds = %128, %31
  %33 = load i32, i32* %3, align 4
  %34 = load i32, i32* %2, align 4
  %35 = sub nsw i32 %34, 1
  %36 = icmp sle i32 %33, %35
  br i1 %36, label %37, label %131

37:                                               ; preds = %32
  %38 = load i32, i32* %3, align 4
  %39 = add nsw i32 %38, 1
  store i32 %39, i32* %4, align 4
  br label %40

40:                                               ; preds = %124, %37
  %41 = load i32, i32* %4, align 4
  %42 = load i32, i32* %2, align 4
  %43 = icmp sle i32 %41, %42
  br i1 %43, label %44, label %127

44:                                               ; preds = %40
  %45 = load i32, i32* %3, align 4
  %46 = sext i32 %45 to i64
  %47 = getelementptr inbounds [12 x i32], [12 x i32]* %7, i64 0, i64 %46
  %48 = load i32, i32* %47, align 4
  %49 = load i32, i32* %4, align 4
  %50 = sext i32 %49 to i64
  %51 = getelementptr inbounds [12 x i32], [12 x i32]* %7, i64 0, i64 %50
  %52 = load i32, i32* %51, align 4
  %53 = sub nsw i32 %48, %52
  %54 = load i32, i32* %3, align 4
  %55 = sext i32 %54 to i64
  %56 = getelementptr inbounds [12 x i32], [12 x i32]* %7, i64 0, i64 %55
  %57 = load i32, i32* %56, align 4
  %58 = load i32, i32* %4, align 4
  %59 = sext i32 %58 to i64
  %60 = getelementptr inbounds [12 x i32], [12 x i32]* %7, i64 0, i64 %59
  %61 = load i32, i32* %60, align 4
  %62 = sub nsw i32 %57, %61
  %63 = mul nsw i32 %53, %62
  %64 = load i32, i32* %3, align 4
  %65 = sext i32 %64 to i64
  %66 = getelementptr inbounds [12 x i32], [12 x i32]* %8, i64 0, i64 %65
  %67 = load i32, i32* %66, align 4
  %68 = load i32, i32* %4, align 4
  %69 = sext i32 %68 to i64
  %70 = getelementptr inbounds [12 x i32], [12 x i32]* %8, i64 0, i64 %69
  %71 = load i32, i32* %70, align 4
  %72 = sub nsw i32 %67, %71
  %73 = load i32, i32* %3, align 4
  %74 = sext i32 %73 to i64
  %75 = getelementptr inbounds [12 x i32], [12 x i32]* %8, i64 0, i64 %74
  %76 = load i32, i32* %75, align 4
  %77 = load i32, i32* %4, align 4
  %78 = sext i32 %77 to i64
  %79 = getelementptr inbounds [12 x i32], [12 x i32]* %8, i64 0, i64 %78
  %80 = load i32, i32* %79, align 4
  %81 = sub nsw i32 %76, %80
  %82 = mul nsw i32 %72, %81
  %83 = add nsw i32 %63, %82
  %84 = load i32, i32* %3, align 4
  %85 = sext i32 %84 to i64
  %86 = getelementptr inbounds [12 x i32], [12 x i32]* %9, i64 0, i64 %85
  %87 = load i32, i32* %86, align 4
  %88 = load i32, i32* %4, align 4
  %89 = sext i32 %88 to i64
  %90 = getelementptr inbounds [12 x i32], [12 x i32]* %9, i64 0, i64 %89
  %91 = load i32, i32* %90, align 4
  %92 = sub nsw i32 %87, %91
  %93 = load i32, i32* %3, align 4
  %94 = sext i32 %93 to i64
  %95 = getelementptr inbounds [12 x i32], [12 x i32]* %9, i64 0, i64 %94
  %96 = load i32, i32* %95, align 4
  %97 = load i32, i32* %4, align 4
  %98 = sext i32 %97 to i64
  %99 = getelementptr inbounds [12 x i32], [12 x i32]* %9, i64 0, i64 %98
  %100 = load i32, i32* %99, align 4
  %101 = sub nsw i32 %96, %100
  %102 = mul nsw i32 %92, %101
  %103 = add nsw i32 %83, %102
  %104 = sitofp i32 %103 to double
  %105 = fmul double %104, 1.000000e+00
  %106 = call double @sqrt(double %105) #3
  %107 = fptrunc double %106 to float
  %108 = load i32, i32* %5, align 4
  %109 = sext i32 %108 to i64
  %110 = getelementptr inbounds [100 x %struct.juli], [100 x %struct.juli]* %11, i64 0, i64 %109
  %111 = getelementptr inbounds %struct.juli, %struct.juli* %110, i32 0, i32 2
  store float %107, float* %111, align 4
  %112 = load i32, i32* %3, align 4
  %113 = load i32, i32* %5, align 4
  %114 = sext i32 %113 to i64
  %115 = getelementptr inbounds [100 x %struct.juli], [100 x %struct.juli]* %11, i64 0, i64 %114
  %116 = getelementptr inbounds %struct.juli, %struct.juli* %115, i32 0, i32 0
  store i32 %112, i32* %116, align 4
  %117 = load i32, i32* %4, align 4
  %118 = load i32, i32* %5, align 4
  %119 = sext i32 %118 to i64
  %120 = getelementptr inbounds [100 x %struct.juli], [100 x %struct.juli]* %11, i64 0, i64 %119
  %121 = getelementptr inbounds %struct.juli, %struct.juli* %120, i32 0, i32 1
  store i32 %117, i32* %121, align 4
  %122 = load i32, i32* %5, align 4
  %123 = add nsw i32 %122, 1
  store i32 %123, i32* %5, align 4
  br label %124

124:                                              ; preds = %44
  %125 = load i32, i32* %4, align 4
  %126 = add nsw i32 %125, 1
  store i32 %126, i32* %4, align 4
  br label %40

127:                                              ; preds = %40
  br label %128

128:                                              ; preds = %127
  %129 = load i32, i32* %3, align 4
  %130 = add nsw i32 %129, 1
  store i32 %130, i32* %3, align 4
  br label %32

131:                                              ; preds = %32
  %132 = load i32, i32* %5, align 4
  %133 = add nsw i32 %132, -1
  store i32 %133, i32* %5, align 4
  store i32 1, i32* %3, align 4
  br label %134

134:                                              ; preds = %228, %131
  %135 = load i32, i32* %3, align 4
  %136 = load i32, i32* %5, align 4
  %137 = sub nsw i32 %136, 1
  %138 = icmp sle i32 %135, %137
  br i1 %138, label %139, label %231

139:                                              ; preds = %134
  store i32 1, i32* %4, align 4
  br label %140

140:                                              ; preds = %224, %139
  %141 = load i32, i32* %4, align 4
  %142 = load i32, i32* %5, align 4
  %143 = load i32, i32* %3, align 4
  %144 = sub nsw i32 %142, %143
  %145 = icmp sle i32 %141, %144
  br i1 %145, label %146, label %227

146:                                              ; preds = %140
  %147 = load i32, i32* %4, align 4
  %148 = sext i32 %147 to i64
  %149 = getelementptr inbounds [100 x %struct.juli], [100 x %struct.juli]* %11, i64 0, i64 %148
  %150 = getelementptr inbounds %struct.juli, %struct.juli* %149, i32 0, i32 2
  %151 = load float, float* %150, align 4
  %152 = load i32, i32* %4, align 4
  %153 = add nsw i32 %152, 1
  %154 = sext i32 %153 to i64
  %155 = getelementptr inbounds [100 x %struct.juli], [100 x %struct.juli]* %11, i64 0, i64 %154
  %156 = getelementptr inbounds %struct.juli, %struct.juli* %155, i32 0, i32 2
  %157 = load float, float* %156, align 4
  %158 = fcmp olt float %151, %157
  br i1 %158, label %159, label %223

159:                                              ; preds = %146
  %160 = load i32, i32* %4, align 4
  %161 = sext i32 %160 to i64
  %162 = getelementptr inbounds [100 x %struct.juli], [100 x %struct.juli]* %11, i64 0, i64 %161
  %163 = getelementptr inbounds %struct.juli, %struct.juli* %162, i32 0, i32 2
  %164 = load float, float* %163, align 4
  store float %164, float* %10, align 4
  %165 = load i32, i32* %4, align 4
  %166 = add nsw i32 %165, 1
  %167 = sext i32 %166 to i64
  %168 = getelementptr inbounds [100 x %struct.juli], [100 x %struct.juli]* %11, i64 0, i64 %167
  %169 = getelementptr inbounds %struct.juli, %struct.juli* %168, i32 0, i32 2
  %170 = load float, float* %169, align 4
  %171 = load i32, i32* %4, align 4
  %172 = sext i32 %171 to i64
  %173 = getelementptr inbounds [100 x %struct.juli], [100 x %struct.juli]* %11, i64 0, i64 %172
  %174 = getelementptr inbounds %struct.juli, %struct.juli* %173, i32 0, i32 2
  store float %170, float* %174, align 4
  %175 = load float, float* %10, align 4
  %176 = load i32, i32* %4, align 4
  %177 = add nsw i32 %176, 1
  %178 = sext i32 %177 to i64
  %179 = getelementptr inbounds [100 x %struct.juli], [100 x %struct.juli]* %11, i64 0, i64 %178
  %180 = getelementptr inbounds %struct.juli, %struct.juli* %179, i32 0, i32 2
  store float %175, float* %180, align 4
  %181 = load i32, i32* %4, align 4
  %182 = sext i32 %181 to i64
  %183 = getelementptr inbounds [100 x %struct.juli], [100 x %struct.juli]* %11, i64 0, i64 %182
  %184 = getelementptr inbounds %struct.juli, %struct.juli* %183, i32 0, i32 0
  %185 = load i32, i32* %184, align 4
  store i32 %185, i32* %6, align 4
  %186 = load i32, i32* %4, align 4
  %187 = add nsw i32 %186, 1
  %188 = sext i32 %187 to i64
  %189 = getelementptr inbounds [100 x %struct.juli], [100 x %struct.juli]* %11, i64 0, i64 %188
  %190 = getelementptr inbounds %struct.juli, %struct.juli* %189, i32 0, i32 0
  %191 = load i32, i32* %190, align 4
  %192 = load i32, i32* %4, align 4
  %193 = sext i32 %192 to i64
  %194 = getelementptr inbounds [100 x %struct.juli], [100 x %struct.juli]* %11, i64 0, i64 %193
  %195 = getelementptr inbounds %struct.juli, %struct.juli* %194, i32 0, i32 0
  store i32 %191, i32* %195, align 4
  %196 = load i32, i32* %6, align 4
  %197 = load i32, i32* %4, align 4
  %198 = add nsw i32 %197, 1
  %199 = sext i32 %198 to i64
  %200 = getelementptr inbounds [100 x %struct.juli], [100 x %struct.juli]* %11, i64 0, i64 %199
  %201 = getelementptr inbounds %struct.juli, %struct.juli* %200, i32 0, i32 0
  store i32 %196, i32* %201, align 4
  %202 = load i32, i32* %4, align 4
  %203 = sext i32 %202 to i64
  %204 = getelementptr inbounds [100 x %struct.juli], [100 x %struct.juli]* %11, i64 0, i64 %203
  %205 = getelementptr inbounds %struct.juli, %struct.juli* %204, i32 0, i32 1
  %206 = load i32, i32* %205, align 4
  store i32 %206, i32* %6, align 4
  %207 = load i32, i32* %4, align 4
  %208 = add nsw i32 %207, 1
  %209 = sext i32 %208 to i64
  %210 = getelementptr inbounds [100 x %struct.juli], [100 x %struct.juli]* %11, i64 0, i64 %209
  %211 = getelementptr inbounds %struct.juli, %struct.juli* %210, i32 0, i32 1
  %212 = load i32, i32* %211, align 4
  %213 = load i32, i32* %4, align 4
  %214 = sext i32 %213 to i64
  %215 = getelementptr inbounds [100 x %struct.juli], [100 x %struct.juli]* %11, i64 0, i64 %214
  %216 = getelementptr inbounds %struct.juli, %struct.juli* %215, i32 0, i32 1
  store i32 %212, i32* %216, align 4
  %217 = load i32, i32* %6, align 4
  %218 = load i32, i32* %4, align 4
  %219 = add nsw i32 %218, 1
  %220 = sext i32 %219 to i64
  %221 = getelementptr inbounds [100 x %struct.juli], [100 x %struct.juli]* %11, i64 0, i64 %220
  %222 = getelementptr inbounds %struct.juli, %struct.juli* %221, i32 0, i32 1
  store i32 %217, i32* %222, align 4
  br label %223

223:                                              ; preds = %159, %146
  br label %224

224:                                              ; preds = %223
  %225 = load i32, i32* %4, align 4
  %226 = add nsw i32 %225, 1
  store i32 %226, i32* %4, align 4
  br label %140

227:                                              ; preds = %140
  br label %228

228:                                              ; preds = %227
  %229 = load i32, i32* %3, align 4
  %230 = add nsw i32 %229, 1
  store i32 %230, i32* %3, align 4
  br label %134

231:                                              ; preds = %134
  store i32 1, i32* %3, align 4
  br label %232

232:                                              ; preds = %292, %231
  %233 = load i32, i32* %3, align 4
  %234 = load i32, i32* %5, align 4
  %235 = icmp sle i32 %233, %234
  br i1 %235, label %236, label %295

236:                                              ; preds = %232
  %237 = load i32, i32* %3, align 4
  %238 = sext i32 %237 to i64
  %239 = getelementptr inbounds [100 x %struct.juli], [100 x %struct.juli]* %11, i64 0, i64 %238
  %240 = getelementptr inbounds %struct.juli, %struct.juli* %239, i32 0, i32 0
  %241 = load i32, i32* %240, align 4
  %242 = sext i32 %241 to i64
  %243 = getelementptr inbounds [12 x i32], [12 x i32]* %7, i64 0, i64 %242
  %244 = load i32, i32* %243, align 4
  %245 = load i32, i32* %3, align 4
  %246 = sext i32 %245 to i64
  %247 = getelementptr inbounds [100 x %struct.juli], [100 x %struct.juli]* %11, i64 0, i64 %246
  %248 = getelementptr inbounds %struct.juli, %struct.juli* %247, i32 0, i32 0
  %249 = load i32, i32* %248, align 4
  %250 = sext i32 %249 to i64
  %251 = getelementptr inbounds [12 x i32], [12 x i32]* %8, i64 0, i64 %250
  %252 = load i32, i32* %251, align 4
  %253 = load i32, i32* %3, align 4
  %254 = sext i32 %253 to i64
  %255 = getelementptr inbounds [100 x %struct.juli], [100 x %struct.juli]* %11, i64 0, i64 %254
  %256 = getelementptr inbounds %struct.juli, %struct.juli* %255, i32 0, i32 0
  %257 = load i32, i32* %256, align 4
  %258 = sext i32 %257 to i64
  %259 = getelementptr inbounds [12 x i32], [12 x i32]* %9, i64 0, i64 %258
  %260 = load i32, i32* %259, align 4
  %261 = load i32, i32* %3, align 4
  %262 = sext i32 %261 to i64
  %263 = getelementptr inbounds [100 x %struct.juli], [100 x %struct.juli]* %11, i64 0, i64 %262
  %264 = getelementptr inbounds %struct.juli, %struct.juli* %263, i32 0, i32 1
  %265 = load i32, i32* %264, align 4
  %266 = sext i32 %265 to i64
  %267 = getelementptr inbounds [12 x i32], [12 x i32]* %7, i64 0, i64 %266
  %268 = load i32, i32* %267, align 4
  %269 = load i32, i32* %3, align 4
  %270 = sext i32 %269 to i64
  %271 = getelementptr inbounds [100 x %struct.juli], [100 x %struct.juli]* %11, i64 0, i64 %270
  %272 = getelementptr inbounds %struct.juli, %struct.juli* %271, i32 0, i32 1
  %273 = load i32, i32* %272, align 4
  %274 = sext i32 %273 to i64
  %275 = getelementptr inbounds [12 x i32], [12 x i32]* %8, i64 0, i64 %274
  %276 = load i32, i32* %275, align 4
  %277 = load i32, i32* %3, align 4
  %278 = sext i32 %277 to i64
  %279 = getelementptr inbounds [100 x %struct.juli], [100 x %struct.juli]* %11, i64 0, i64 %278
  %280 = getelementptr inbounds %struct.juli, %struct.juli* %279, i32 0, i32 1
  %281 = load i32, i32* %280, align 4
  %282 = sext i32 %281 to i64
  %283 = getelementptr inbounds [12 x i32], [12 x i32]* %9, i64 0, i64 %282
  %284 = load i32, i32* %283, align 4
  %285 = load i32, i32* %3, align 4
  %286 = sext i32 %285 to i64
  %287 = getelementptr inbounds [100 x %struct.juli], [100 x %struct.juli]* %11, i64 0, i64 %286
  %288 = getelementptr inbounds %struct.juli, %struct.juli* %287, i32 0, i32 2
  %289 = load float, float* %288, align 4
  %290 = fpext float %289 to double
  %291 = call i32 (i8*, ...) @printf(i8* getelementptr inbounds ([28 x i8], [28 x i8]* @.str.2, i64 0, i64 0), i32 %244, i32 %252, i32 %260, i32 %268, i32 %276, i32 %284, double %290)
  br label %292

292:                                              ; preds = %236
  %293 = load i32, i32* %3, align 4
  %294 = add nsw i32 %293, 1
  store i32 %294, i32* %3, align 4
  br label %232

295:                                              ; preds = %232
  ret i32 0
}